target datalayout = "e-m:e-p270:32:32-p271:32:32-p272:64:64-i64:64-i128:128-f80:128-n8:16:32:64-S128"
target triple = "x86_64-pc-linux-gnu"

%struct.bignum_st = type { ptr, i32, i32, i32, i32 }

; Function Attrs: nounwind uwtable
define i32 @BN_GF2m_add(ptr noundef %0, ptr noundef %1, ptr noundef %2) #0 {
  %4 = alloca i32, align 4
  %5 = alloca ptr, align 8
  %6 = alloca ptr, align 8
  %7 = alloca ptr, align 8
  %8 = alloca i32, align 4
  %9 = alloca ptr, align 8
  %10 = alloca ptr, align 8
  %11 = alloca i32, align 4
  store ptr %0, ptr %5, align 8, !tbaa !3
  store ptr %1, ptr %6, align 8, !tbaa !3
  store ptr %2, ptr %7, align 8, !tbaa !3
  call void @llvm.lifetime.start.p0(i64 4, ptr %8) #3
  call void @llvm.lifetime.start.p0(i64 8, ptr %9) #3
  call void @llvm.lifetime.start.p0(i64 8, ptr %10) #3
  %12 = load ptr, ptr %6, align 8, !tbaa !3
  %13 = getelementptr inbounds nuw %struct.bignum_st, ptr %12, i32 0, i32 1
  %14 = load i32, ptr %13, align 8, !tbaa !8
  %15 = load ptr, ptr %7, align 8, !tbaa !3
  %16 = getelementptr inbounds nuw %struct.bignum_st, ptr %15, i32 0, i32 1
  %17 = load i32, ptr %16, align 8, !tbaa !8
  %18 = icmp slt i32 %14, %17
  br i1 %18, label %19, label %22

19:                                               ; preds = %3
  %20 = load ptr, ptr %7, align 8, !tbaa !3
  store ptr %20, ptr %9, align 8, !tbaa !3
  %21 = load ptr, ptr %6, align 8, !tbaa !3
  store ptr %21, ptr %10, align 8, !tbaa !3
  br label %25

22:                                               ; preds = %3
  %23 = load ptr, ptr %6, align 8, !tbaa !3
  store ptr %23, ptr %9, align 8, !tbaa !3
  %24 = load ptr, ptr %7, align 8, !tbaa !3
  store ptr %24, ptr %10, align 8, !tbaa !3
  br label %25

25:                                               ; preds = %22, %19
  %26 = load ptr, ptr %5, align 8, !tbaa !3
  %27 = load ptr, ptr %9, align 8, !tbaa !3
  %28 = getelementptr inbounds nuw %struct.bignum_st, ptr %27, i32 0, i32 1
  %29 = load i32, ptr %28, align 8, !tbaa !8
  %30 = call ptr @bn_wexpand(ptr noundef %26, i32 noundef %29)
  %31 = icmp eq ptr %30, null
  br i1 %31, label %32, label %33

32:                                               ; preds = %25
  store i32 0, ptr %4, align 4
  store i32 1, ptr %11, align 4
  br label %96

33:                                               ; preds = %25
  store i32 0, ptr %8, align 4, !tbaa !12
  br label %34

34:                                               ; preds = %62, %33
  %35 = load i32, ptr %8, align 4, !tbaa !12
  %36 = load ptr, ptr %10, align 8, !tbaa !3
  %37 = getelementptr inbounds nuw %struct.bignum_st, ptr %36, i32 0, i32 1
  %38 = load i32, ptr %37, align 8, !tbaa !8
  %39 = icmp slt i32 %35, %38
  br i1 %39, label %40, label %65

40:                                               ; preds = %34
  %41 = load ptr, ptr %9, align 8, !tbaa !3
  %42 = getelementptr inbounds nuw %struct.bignum_st, ptr %41, i32 0, i32 0
  %43 = load ptr, ptr %42, align 8, !tbaa !13
  %44 = load i32, ptr %8, align 4, !tbaa !12
  %45 = sext i32 %44 to i64
  %46 = getelementptr inbounds i64, ptr %43, i64 %45
  %47 = load i64, ptr %46, align 8, !tbaa !14
  %48 = load ptr, ptr %10, align 8, !tbaa !3
  %49 = getelementptr inbounds nuw %struct.bignum_st, ptr %48, i32 0, i32 0
  %50 = load ptr, ptr %49, align 8, !tbaa !13
  %51 = load i32, ptr %8, align 4, !tbaa !12
  %52 = sext i32 %51 to i64
  %53 = getelementptr inbounds i64, ptr %50, i64 %52
  %54 = load i64, ptr %53, align 8, !tbaa !14
  %55 = xor i64 %47, %54
  %56 = load ptr, ptr %5, align 8, !tbaa !3
  %57 = getelementptr inbounds nuw %struct.bignum_st, ptr %56, i32 0, i32 0
  %58 = load ptr, ptr %57, align 8, !tbaa !13
  %59 = load i32, ptr %8, align 4, !tbaa !12
  %60 = sext i32 %59 to i64
  %61 = getelementptr inbounds i64, ptr %58, i64 %60
  store i64 %55, ptr %61, align 8, !tbaa !14
  br label %62

62:                                               ; preds = %40
  %63 = load i32, ptr %8, align 4, !tbaa !12
  %64 = add nsw i32 %63, 1
  store i32 %64, ptr %8, align 4, !tbaa !12
  br label %34, !llvm.loop !16

65:                                               ; preds = %34
  br label %66

66:                                               ; preds = %86, %65
  %67 = load i32, ptr %8, align 4, !tbaa !12
  %68 = load ptr, ptr %9, align 8, !tbaa !3
  %69 = getelementptr inbounds nuw %struct.bignum_st, ptr %68, i32 0, i32 1
  %70 = load i32, ptr %69, align 8, !tbaa !8
  %71 = icmp slt i32 %67, %70
  br i1 %71, label %72, label %89

72:                                               ; preds = %66
  %73 = load ptr, ptr %9, align 8, !tbaa !3
  %74 = getelementptr inbounds nuw %struct.bignum_st, ptr %73, i32 0, i32 0
  %75 = load ptr, ptr %74, align 8, !tbaa !13
  %76 = load i32, ptr %8, align 4, !tbaa !12
  %77 = sext i32 %76 to i64
  %78 = getelementptr inbounds i64, ptr %75, i64 %77
  %79 = load i64, ptr %78, align 8, !tbaa !14
  %80 = load ptr, ptr %5, align 8, !tbaa !3
  %81 = getelementptr inbounds nuw %struct.bignum_st, ptr %80, i32 0, i32 0
  %82 = load ptr, ptr %81, align 8, !tbaa !13
  %83 = load i32, ptr %8, align 4, !tbaa !12
  %84 = sext i32 %83 to i64
  %85 = getelementptr inbounds i64, ptr %82, i64 %84
  store i64 %79, ptr %85, align 8, !tbaa !14
  br label %86

86:                                               ; preds = %72
  %87 = load i32, ptr %8, align 4, !tbaa !12
  %88 = add nsw i32 %87, 1
  store i32 %88, ptr %8, align 4, !tbaa !12
  br label %66, !llvm.loop !18

89:                                               ; preds = %66
  %90 = load ptr, ptr %9, align 8, !tbaa !3
  %91 = getelementptr inbounds nuw %struct.bignum_st, ptr %90, i32 0, i32 1
  %92 = load i32, ptr %91, align 8, !tbaa !8
  %93 = load ptr, ptr %5, align 8, !tbaa !3
  %94 = getelementptr inbounds nuw %struct.bignum_st, ptr %93, i32 0, i32 1
  store i32 %92, ptr %94, align 8, !tbaa !8
  %95 = load ptr, ptr %5, align 8, !tbaa !3
  call void @bn_correct_top(ptr noundef %95)
  store i32 1, ptr %4, align 4
  store i32 1, ptr %11, align 4
  br label %96

96:                                               ; preds = %89, %32
  call void @llvm.lifetime.end.p0(i64 8, ptr %10) #3
  call void @llvm.lifetime.end.p0(i64 8, ptr %9) #3
  call void @llvm.lifetime.end.p0(i64 4, ptr %8) #3
  %97 = load i32, ptr %4, align 4
  ret i32 %97
}