; Function Attrs: nounwind uwtable
define range(i32 0, 2) i32 @BN_GF2m_add(ptr noundef %0, ptr noundef readonly captures(none) %1, ptr noundef readonly captures(none) %2) local_unnamed_addr #0 {
  %4 = getelementptr inbounds nuw i8, ptr %1, i64 8
  %5 = load i32, ptr %4, align 8, !tbaa !3
  %6 = getelementptr inbounds nuw i8, ptr %2, i64 8
  %7 = load i32, ptr %6, align 8, !tbaa !3
  %8 = icmp slt i32 %5, %7
  %. = select i1 %8, ptr %2, ptr %1
  %.31 = select i1 %8, ptr %1, ptr %2
  %9 = getelementptr inbounds nuw i8, ptr %., i64 8
  %10 = load i32, ptr %9, align 8, !tbaa !3
  %11 = tail call ptr @bn_wexpand(ptr noundef %0, i32 noundef %10) #5
  %12 = icmp eq ptr %11, null
  br i1 %12, label %36, label %.preheader32

.preheader32:                                     ; preds = %3
  %13 = getelementptr inbounds nuw i8, ptr %.31, i64 8
  %14 = load i32, ptr %13, align 8, !tbaa !3
  %15 = icmp sgt i32 %14, 0
  br i1 %15, label %.lr.ph, label %.preheader

.lr.ph:                                           ; preds = %.preheader32
  %16 = load ptr, ptr %., align 8, !tbaa !10
  %17 = load ptr, ptr %.31, align 8, !tbaa !10
  %18 = load ptr, ptr %0, align 8, !tbaa !10
  %wide.trip.count = zext nneg i32 %14 to i64
  br label %24

.preheader:                                       ; preds = %24, %.preheader32
  %.028.lcssa = phi i32 [ 0, %.preheader32 ], [ %14, %24 ]
  %19 = load i32, ptr %9, align 8, !tbaa !3
  %20 = icmp slt i32 %.028.lcssa, %19
  br i1 %20, label %.lr.ph35, label %._crit_edge

.lr.ph35:                                         ; preds = %.preheader
  %21 = load ptr, ptr %., align 8, !tbaa !10
  %22 = load ptr, ptr %0, align 8, !tbaa !10
  %23 = zext nneg i32 %.028.lcssa to i64
  %wide.trip.count42 = zext i32 %19 to i64
  br label %31

24:                                               ; preds = %.lr.ph, %24
  %indvars.iv = phi i64 [ 0, %.lr.ph ], [ %indvars.iv.next, %24 ]
  %25 = getelementptr inbounds nuw i64, ptr %16, i64 %indvars.iv
  %26 = load i64, ptr %25, align 8, !tbaa !11
  %27 = getelementptr inbounds nuw i64, ptr %17, i64 %indvars.iv
  %28 = load i64, ptr %27, align 8, !tbaa !11
  %29 = xor i64 %28, %26
  %30 = getelementptr inbounds nuw i64, ptr %18, i64 %indvars.iv
  store i64 %29, ptr %30, align 8, !tbaa !11
  %indvars.iv.next = add nuw nsw i64 %indvars.iv, 1
  %exitcond.not = icmp eq i64 %indvars.iv.next, %wide.trip.count
  br i1 %exitcond.not, label %.preheader, label %24, !llvm.loop !13

31:                                               ; preds = %.lr.ph35, %31
  %indvars.iv39 = phi i64 [ %23, %.lr.ph35 ], [ %indvars.iv.next40, %31 ]
  %32 = getelementptr inbounds nuw i64, ptr %21, i64 %indvars.iv39
  %33 = load i64, ptr %32, align 8, !tbaa !11
  %34 = getelementptr inbounds nuw i64, ptr %22, i64 %indvars.iv39
  store i64 %33, ptr %34, align 8, !tbaa !11
  %indvars.iv.next40 = add nuw nsw i64 %indvars.iv39, 1
  %exitcond43.not = icmp eq i64 %indvars.iv.next40, %wide.trip.count42
  br i1 %exitcond43.not, label %._crit_edge, label %31, !llvm.loop !15

._crit_edge:                                      ; preds = %31, %.preheader
  %35 = getelementptr inbounds nuw i8, ptr %0, i64 8
  store i32 %19, ptr %35, align 8, !tbaa !3
  tail call void @bn_correct_top(ptr noundef %0) #5
  br label %36

36:                                               ; preds = %3, %._crit_edge
  %.029 = phi i32 [ 1, %._crit_edge ], [ 0, %3 ]
  ret i32 %.029
}